; ModuleID = '33/3163.c'
source_filename = "33/3163.c"
target datalayout = "e-m:e-p270:32:32-p271:32:32-p272:64:64-i64:64-f80:128-n8:16:32:64-S128"
target triple = "x86_64-pc-linux-gnu"

@.str = private unnamed_addr constant [3 x i8] c"%d\00", align 1
@.str.1 = private unnamed_addr constant [3 x i8] c"%s\00", align 1
@.str.2 = private unnamed_addr constant [4 x i8] c"%s\0A\00", align 1

; Function Attrs: noinline nounwind uwtable
define dso_local i32 @main() #0 {
  %1 = alloca i32, align 4
  %2 = alloca i32, align 4
  %3 = alloca i32, align 4
  %4 = alloca [255 x i8], align 16
  %5 = alloca i32, align 4
  %6 = alloca [255 x i8], align 16
  %7 = alloca i32, align 4
  store i32 0, i32* %1, align 4
  %8 = call i32 (i8*, ...) @__isoc99_scanf(i8* getelementptr inbounds ([3 x i8], [3 x i8]* @.str, i64 0, i64 0), i32* %2)
  store i32 0, i32* %3, align 4
  br label %9

9:                                                ; preds = %78, %0
  %10 = load i32, i32* %3, align 4
  %11 = load i32, i32* %2, align 4
  %12 = icmp slt i32 %10, %11
  br i1 %12, label %13, label %81

13:                                               ; preds = %9
  %14 = getelementptr inbounds [255 x i8], [255 x i8]* %4, i64 0, i64 0
  %15 = call i32 (i8*, ...) @__isoc99_scanf(i8* getelementptr inbounds ([3 x i8], [3 x i8]* @.str.1, i64 0, i64 0), i8* %14)
  %16 = getelementptr inbounds [255 x i8], [255 x i8]* %4, i64 0, i64 0
  %17 = call i64 @strlen(i8* %16) #4
  %18 = trunc i64 %17 to i32
  store i32 %18, i32* %5, align 4
  %19 = bitcast [255 x i8]* %6 to i8*
  call void @llvm.memset.p0i8.i64(i8* align 16 %19, i8 0, i64 255, i1 false)
  store i32 0, i32* %7, align 4
  br label %20

20:                                               ; preds = %72, %13
  %21 = load i32, i32* %7, align 4
  %22 = load i32, i32* %5, align 4
  %23 = icmp slt i32 %21, %22
  br i1 %23, label %24, label %75

24:                                               ; preds = %20
  %25 = load i32, i32* %7, align 4
  %26 = sext i32 %25 to i64
  %27 = getelementptr inbounds [255 x i8], [255 x i8]* %4, i64 0, i64 %26
  %28 = load i8, i8* %27, align 1
  %29 = sext i8 %28 to i32
  %30 = icmp eq i32 %29, 65
  br i1 %30, label %31, label %35

31:                                               ; preds = %24
  %32 = load i32, i32* %7, align 4
  %33 = sext i32 %32 to i64
  %34 = getelementptr inbounds [255 x i8], [255 x i8]* %6, i64 0, i64 %33
  store i8 84, i8* %34, align 1
  br label %71

35:                                               ; preds = %24
  %36 = load i32, i32* %7, align 4
  %37 = sext i32 %36 to i64
  %38 = getelementptr inbounds [255 x i8], [255 x i8]* %4, i64 0, i64 %37
  %39 = load i8, i8* %38, align 1
  %40 = sext i8 %39 to i32
  %41 = icmp eq i32 %40, 84
  br i1 %41, label %42, label %46

42:                                               ; preds = %35
  %43 = load i32, i32* %7, align 4
  %44 = sext i32 %43 to i64
  %45 = getelementptr inbounds [255 x i8], [255 x i8]* %6, i64 0, i64 %44
  store i8 65, i8* %45, align 1
  br label %70

46:                                               ; preds = %35
  %47 = load i32, i32* %7, align 4
  %48 = sext i32 %47 to i64
  %49 = getelementptr inbounds [255 x i8], [255 x i8]* %4, i64 0, i64 %48
  %50 = load i8, i8* %49, align 1
  %51 = sext i8 %50 to i32
  %52 = icmp eq i32 %51, 67
  br i1 %52, label %53, label %57

53:                                               ; preds = %46
  %54 = load i32, i32* %7, align 4
  %55 = sext i32 %54 to i64
  %56 = getelementptr inbounds [255 x i8], [255 x i8]* %6, i64 0, i64 %55
  store i8 71, i8* %56, align 1
  br label %69

57:                                               ; preds = %46
  %58 = load i32, i32* %7, align 4
  %59 = sext i32 %58 to i64
  %60 = getelementptr inbounds [255 x i8], [255 x i8]* %4, i64 0, i64 %59
  %61 = load i8, i8* %60, align 1
  %62 = sext i8 %61 to i32
  %63 = icmp eq i32 %62, 71
  br i1 %63, label %64, label %68

64:                                               ; preds = %57
  %65 = load i32, i32* %7, align 4
  %66 = sext i32 %65 to i64
  %67 = getelementptr inbounds [255 x i8], [255 x i8]* %6, i64 0, i64 %66
  store i8 67, i8* %67, align 1
  br label %68

68:                                               ; preds = %64, %57
  br label %69

69:                                               ; preds = %68, %53
  br label %70

70:                                               ; preds = %69, %42
  br label %71

71:                                               ; preds = %70, %31
  br label %72

72:                                               ; preds = %71
  %73 = load i32, i32* %7, align 4
  %74 = add nsw i32 %73, 1
  store i32 %74, i32* %7, align 4
  br label %20

75:                                               ; preds = %20
  %76 = getelementptr inbounds [255 x i8], [255 x i8]* %6, i64 0, i64 0
  %77 = call i32 (i8*, ...) @printf(i8* getelementptr inbounds ([4 x i8], [4 x i8]* @.str.2, i64 0, i64 0), i8* %76)
  br label %78

78:                                               ; preds = %75
  %79 = load i32, i32* %3, align 4
  %80 = add nsw i32 %79, 1
  store i32 %80, i32* %3, align 4
  br label %9

81:                                               ; preds = %9
  ret i32 0
}

declare dso_local i32 @__isoc99_scanf(i8*, ...) #1

; Function Attrs: nounwind readonly
declare dso_local i64 @strlen(i8*) #2

; Function Attrs: argmemonly nounwind willreturn
declare void @llvm.memset.p0i8.i64(i8* nocapture writeonly, i8, i64, i1 immarg) #3

declare dso_local i32 @printf(i8*, ...) #1


!llvm.module.flags = !{!0}
!llvm.ident = !{!1}

!0 = !{i32 1, !"wchar_size", i32 4}
!1 = !{!"clang version 10.0.0-4ubuntu1 "}
